; Function Attrs: mustprogress nofree norecurse nosync nounwind willreturn memory(argmem: read) uwtable
define dso_local noundef zeroext i1 @_ZNK4llvm9symbolize12MarkupFilter4MMap8containsEm(ptr noundef nonnull readonly align 8 captures(none) dereferenceable(64) %0, i64 noundef %1) local_unnamed_addr #7 align 2 {
  %3 = load i64, ptr %0, align 8
  %.not = icmp ule i64 %3, %1
  %4 = getelementptr inbounds nuw i8, ptr %0, i64 8
  %5 = load i64, ptr %4, align 8
  %6 = add i64 %5, %3
  %7 = icmp ult i64 %1, %6
  %8 = select i1 %.not, i1 %7, i1 false
  ret i1 %8
}